target datalayout = "e-m:e-p270:32:32-p271:32:32-p272:64:64-i64:64-i128:128-f80:128-n8:16:32:64-S128"
target triple = "x86_64-pc-linux-gnu"

%class.Node = type <{ ptr, ptr, ptr, i32, i32, i32, i32, i32, i32, i32, [4 x i8] }>
%class.Type = type <{ ptr, ptr, i32, [4 x i8] }>
%class.TypeLong = type { %class.TypeInteger.base, i64, i64 }
%class.TypeInteger.base = type { %class.Type.base, i16 }
%class.Type.base = type <{ ptr, ptr, i32 }>
%class.TypeNarrowPtr = type { %class.Type.base, ptr }

; Function Attrs: mustprogress nounwind uwtable
define linkonce_odr hidden noundef ptr @_ZNK4Type14is_narrowklassEv(ptr noundef nonnull align 8 dereferenceable(20) %0) #1 comdat align 2 {
  %2 = alloca ptr, align 8
  store ptr %0, ptr %2, align 8
  %3 = load ptr, ptr %2, align 8
  ret ptr %3
}

; Function Attrs: mustprogress nounwind uwtable
define linkonce_odr hidden noundef ptr @_ZNK13TypeNarrowPtr11get_ptrtypeEv(ptr noundef nonnull align 8 dereferenceable(32) %0) #1 comdat align 2 {
  %2 = alloca ptr, align 8
  store ptr %0, ptr %2, align 8
  %3 = load ptr, ptr %2, align 8
  %4 = getelementptr inbounds %class.TypeNarrowPtr, ptr %3, i32 0, i32 1
  %5 = load ptr, ptr %4, align 8
  ret ptr %5
}

; Function Attrs: mustprogress nounwind uwtable
define linkonce_odr hidden noundef ptr @_ZNK4Type12is_narrowoopEv(ptr noundef nonnull align 8 dereferenceable(20) %0) #1 comdat align 2 {
  %2 = alloca ptr, align 8
  store ptr %0, ptr %2, align 8
  %3 = load ptr, ptr %2, align 8
  ret ptr %3
}

; Function Attrs: mustprogress nounwind uwtable
define linkonce_odr hidden noundef ptr @_ZNK4Type7isa_ptrEv(ptr noundef nonnull align 8 dereferenceable(20) %0) #1 comdat align 2 {
  %2 = alloca ptr, align 8
  store ptr %0, ptr %2, align 8
  %3 = load ptr, ptr %2, align 8
  %4 = getelementptr inbounds %class.Type, ptr %3, i32 0, i32 2
  %5 = load i32, ptr %4, align 8
  %6 = icmp sge i32 %5, 18
  br i1 %6, label %7, label %12

7:                                                ; preds = %1
  %8 = getelementptr inbounds %class.Type, ptr %3, i32 0, i32 2
  %9 = load i32, ptr %8, align 8
  %10 = icmp sle i32 %9, 26
  br i1 %10, label %11, label %12

11:                                               ; preds = %7
  br label %13

12:                                               ; preds = %7, %1
  br label %13

13:                                               ; preds = %12, %11
  %14 = phi ptr [ %3, %11 ], [ null, %12 ]
  ret ptr %14
}

; Function Attrs: mustprogress nounwind uwtable
define linkonce_odr hidden noundef zeroext i1 @_ZNK8TypeLong6is_conEv(ptr noundef nonnull align 8 dereferenceable(40) %0) #1 comdat align 2 {
  %2 = alloca ptr, align 8
  store ptr %0, ptr %2, align 8
  %3 = load ptr, ptr %2, align 8
  %4 = getelementptr inbounds %class.TypeLong, ptr %3, i32 0, i32 1
  %5 = load i64, ptr %4, align 8
  %6 = getelementptr inbounds %class.TypeLong, ptr %3, i32 0, i32 2
  %7 = load i64, ptr %6, align 8
  %8 = icmp eq i64 %5, %7
  ret i1 %8
}

; Function Attrs: mustprogress nounwind uwtable
define linkonce_odr hidden noundef ptr @_ZNK4Type7is_longEv(ptr noundef nonnull align 8 dereferenceable(20) %0) #1 comdat align 2 {
  %2 = alloca ptr, align 8
  store ptr %0, ptr %2, align 8
  %3 = load ptr, ptr %2, align 8
  ret ptr %3
}

; Function Attrs: mustprogress nounwind uwtable
define linkonce_odr hidden noundef i64 @_ZNK8TypeLong7get_conEv(ptr noundef nonnull align 8 dereferenceable(40) %0) #1 comdat align 2 {
  %2 = alloca ptr, align 8
  store ptr %0, ptr %2, align 8
  %3 = load ptr, ptr %2, align 8
  %4 = getelementptr inbounds %class.TypeLong, ptr %3, i32 0, i32 1
  %5 = load i64, ptr %4, align 8
  ret i64 %5
}

; Function Attrs: mustprogress nounwind uwtable
define linkonce_odr hidden noundef ptr @_ZNK4Type8isa_longEv(ptr noundef nonnull align 8 dereferenceable(20) %0) #1 comdat align 2 {
  %2 = alloca ptr, align 8
  store ptr %0, ptr %2, align 8
  %3 = load ptr, ptr %2, align 8
  %4 = getelementptr inbounds %class.Type, ptr %3, i32 0, i32 2
  %5 = load i32, ptr %4, align 8
  %6 = icmp eq i32 %5, 4
  br i1 %6, label %7, label %8

7:                                                ; preds = %1
  br label %9

8:                                                ; preds = %1
  br label %9

9:                                                ; preds = %8, %7
  %10 = phi ptr [ %3, %7 ], [ null, %8 ]
  ret ptr %10
}

; Function Attrs: mustprogress nounwind uwtable
define linkonce_odr hidden noundef zeroext i1 @_ZNK4Node6is_ConEv(ptr noundef nonnull align 8 dereferenceable(52) %0) #1 comdat align 2 {
  %2 = alloca ptr, align 8
  store ptr %0, ptr %2, align 8
  %3 = load ptr, ptr %2, align 8
  %4 = getelementptr inbounds %class.Node, ptr %3, i32 0, i32 9
  %5 = load i32, ptr %4, align 8
  %6 = and i32 %5, 16
  %7 = icmp ne i32 %6, 0
  ret i1 %7
}

; Function Attrs: mustprogress nounwind uwtable
define linkonce_odr hidden noundef ptr @_ZNK4Type8make_ptrEv(ptr noundef nonnull align 8 dereferenceable(20) %0) #1 comdat align 2 {
  %2 = alloca ptr, align 8
  store ptr %0, ptr %2, align 8
  %3 = load ptr, ptr %2, align 8
  %4 = getelementptr inbounds %class.Type, ptr %3, i32 0, i32 2
  %5 = load i32, ptr %4, align 8
  %6 = icmp eq i32 %5, 6
  br i1 %6, label %7, label %10

7:                                                ; preds = %1
  %8 = call noundef ptr @_ZNK4Type12is_narrowoopEv(ptr noundef nonnull align 8 dereferenceable(20) %3)
  %9 = call noundef ptr @_ZNK13TypeNarrowPtr11get_ptrtypeEv(ptr noundef nonnull align 8 dereferenceable(32) %8)
  br label %21

10:                                               ; preds = %1
  %11 = getelementptr inbounds %class.Type, ptr %3, i32 0, i32 2
  %12 = load i32, ptr %11, align 8
  %13 = icmp eq i32 %12, 7
  br i1 %13, label %14, label %17

14:                                               ; preds = %10
  %15 = call noundef ptr @_ZNK4Type14is_narrowklassEv(ptr noundef nonnull align 8 dereferenceable(20) %3)
  %16 = call noundef ptr @_ZNK13TypeNarrowPtr11get_ptrtypeEv(ptr noundef nonnull align 8 dereferenceable(32) %15)
  br label %19

17:                                               ; preds = %10
  %18 = call noundef ptr @_ZNK4Type7isa_ptrEv(ptr noundef nonnull align 8 dereferenceable(20) %3)
  br label %19

19:                                               ; preds = %17, %14
  %20 = phi ptr [ %16, %14 ], [ %18, %17 ]
  br label %21

21:                                               ; preds = %19, %7
  %22 = phi ptr [ %9, %7 ], [ %20, %19 ]
  ret ptr %22
}

; Function Attrs: mustprogress nounwind uwtable
define linkonce_odr hidden noundef ptr @_ZNK4Type15isa_narrowklassEv(ptr noundef nonnull align 8 dereferenceable(20) %0) #1 comdat align 2 {
  %2 = alloca ptr, align 8
  store ptr %0, ptr %2, align 8
  %3 = load ptr, ptr %2, align 8
  %4 = getelementptr inbounds %class.Type, ptr %3, i32 0, i32 2
  %5 = load i32, ptr %4, align 8
  %6 = icmp eq i32 %5, 7
  br i1 %6, label %7, label %8

7:                                                ; preds = %1
  br label %9

8:                                                ; preds = %1
  br label %9

9:                                                ; preds = %8, %7
  %10 = phi ptr [ %3, %7 ], [ null, %8 ]
  ret ptr %10
}

; Function Attrs: mustprogress nounwind uwtable
define linkonce_odr hidden noundef ptr @_ZNK4Type13isa_narrowoopEv(ptr noundef nonnull align 8 dereferenceable(20) %0) #1 comdat align 2 {
  %2 = alloca ptr, align 8
  store ptr %0, ptr %2, align 8
  %3 = load ptr, ptr %2, align 8
  %4 = getelementptr inbounds %class.Type, ptr %3, i32 0, i32 2
  %5 = load i32, ptr %4, align 8
  %6 = icmp eq i32 %5, 6
  br i1 %6, label %7, label %8

7:                                                ; preds = %1
  br label %9

8:                                                ; preds = %1
  br label %9

9:                                                ; preds = %8, %7
  %10 = phi ptr [ %3, %7 ], [ null, %8 ]
  ret ptr %10
}

; Function Attrs: mustprogress nounwind uwtable
define hidden noundef ptr @_ZNK8MachNode17get_base_and_dispERlRPK7TypePtr(ptr noundef nonnull align 8 dereferenceable(64) %0, ptr noundef nonnull align 8 dereferenceable(8) %1, ptr noundef nonnull align 8 dereferenceable(8) %2) #1 align 2 {
  %4 = alloca ptr, align 8
  %5 = alloca ptr, align 8
  %6 = alloca ptr, align 8
  %7 = alloca ptr, align 8
  %8 = alloca ptr, align 8
  %9 = alloca ptr, align 8
  %10 = alloca ptr, align 8
  %11 = alloca i64, align 8
  %12 = alloca i32, align 4
  %13 = alloca ptr, align 8
  %14 = alloca ptr, align 8
  %15 = alloca ptr, align 8
  %16 = alloca ptr, align 8
  %17 = alloca ptr, align 8
  %18 = alloca ptr, align 8
  store ptr %0, ptr %5, align 8
  store ptr %1, ptr %6, align 8
  store ptr %2, ptr %7, align 8
  %19 = load ptr, ptr %5, align 8
  %20 = call noundef ptr @_ZNK8MachNode13memory_inputsERP4NodeS2_(ptr noundef nonnull align 8 dereferenceable(64) %19, ptr noundef nonnull align 8 dereferenceable(8) %8, ptr noundef nonnull align 8 dereferenceable(8) %9)
  store ptr %20, ptr %10, align 8
  %21 = load ptr, ptr %10, align 8
  %22 = icmp eq ptr %21, null
  br i1 %22, label %23, label %25

23:                                               ; preds = %3
  %24 = load ptr, ptr %6, align 8
  store i64 0, ptr %24, align 8
  br label %165

25:                                               ; preds = %3
  %26 = load ptr, ptr %10, align 8
  %27 = icmp eq ptr %26, inttoptr (i64 -1 to ptr)
  br i1 %27, label %28, label %30

28:                                               ; preds = %25
  %29 = load ptr, ptr %6, align 8
  store i64 -2000000001, ptr %29, align 8
  br label %164

30:                                               ; preds = %25
  %31 = load ptr, ptr %10, align 8
  %32 = load ptr, ptr %31, align 8
  %33 = getelementptr inbounds ptr, ptr %32, i64 18
  %34 = load ptr, ptr %33, align 8
  %35 = call noundef i32 %34(ptr noundef nonnull align 8 dereferenceable(8) %31)
  %36 = sext i32 %35 to i64
  store i64 %36, ptr %11, align 8
  %37 = load ptr, ptr %10, align 8
  %38 = load ptr, ptr %37, align 8
  %39 = getelementptr inbounds ptr, ptr %38, i64 15
  %40 = load ptr, ptr %39, align 8
  %41 = call noundef i32 %40(ptr noundef nonnull align 8 dereferenceable(8) %37)
  store i32 %41, ptr %12, align 4
  %42 = load ptr, ptr %9, align 8
  %43 = icmp ne ptr %42, null
  br i1 %43, label %44, label %94

44:                                               ; preds = %30
  %45 = load ptr, ptr %9, align 8
  %46 = load ptr, ptr %45, align 8
  %47 = getelementptr inbounds ptr, ptr %46, i64 5
  %48 = load ptr, ptr %47, align 8
  %49 = call noundef ptr %48(ptr noundef nonnull align 8 dereferenceable(52) %45)
  store ptr %49, ptr %13, align 8
  %50 = load ptr, ptr %13, align 8
  %51 = call noundef ptr @_ZNK4Type13isa_narrowoopEv(ptr noundef nonnull align 8 dereferenceable(20) %50)
  %52 = icmp ne ptr %51, null
  br i1 %52, label %57, label %53

53:                                               ; preds = %44
  %54 = load ptr, ptr %13, align 8
  %55 = call noundef ptr @_ZNK4Type15isa_narrowklassEv(ptr noundef nonnull align 8 dereferenceable(20) %54)
  %56 = icmp ne ptr %55, null
  br i1 %56, label %57, label %69

57:                                               ; preds = %53, %44
  %58 = load i64, ptr %11, align 8
  %59 = load ptr, ptr %6, align 8
  store i64 %58, ptr %59, align 8
  %60 = load ptr, ptr %13, align 8
  %61 = call noundef ptr @_ZNK4Type8make_ptrEv(ptr noundef nonnull align 8 dereferenceable(20) %60)
  %62 = load ptr, ptr %6, align 8
  %63 = load i64, ptr %62, align 8
  %64 = load ptr, ptr %61, align 8
  %65 = getelementptr inbounds ptr, ptr %64, i64 24
  %66 = load ptr, ptr %65, align 8
  %67 = call noundef ptr %66(ptr noundef nonnull align 8 dereferenceable(44) %61, i64 noundef %63)
  %68 = load ptr, ptr %7, align 8
  store ptr %67, ptr %68, align 8
  store ptr null, ptr %4, align 8
  br label %167

69:                                               ; preds = %53
  %70 = load ptr, ptr %9, align 8
  %71 = call noundef zeroext i1 @_ZNK4Node6is_ConEv(ptr noundef nonnull align 8 dereferenceable(52) %70)
  br i1 %71, label %73, label %72

72:                                               ; preds = %69
  store i64 -2000000001, ptr %11, align 8
  br label %92

73:                                               ; preds = %69
  %74 = load i64, ptr %11, align 8
  %75 = icmp ne i64 %74, -2000000001
  br i1 %75, label %76, label %91

76:                                               ; preds = %73
  %77 = load ptr, ptr %13, align 8
  %78 = call noundef ptr @_ZNK4Type8isa_longEv(ptr noundef nonnull align 8 dereferenceable(20) %77)
  store ptr %78, ptr %14, align 8
  %79 = load ptr, ptr %14, align 8
  %80 = icmp eq ptr %79, null
  br i1 %80, label %81, label %82

81:                                               ; preds = %76
  store i64 -2000000001, ptr %11, align 8
  br label %90

82:                                               ; preds = %76
  %83 = load ptr, ptr %14, align 8
  %84 = call noundef i64 @_ZNK8TypeLong7get_conEv(ptr noundef nonnull align 8 dereferenceable(40) %83)
  %85 = load i32, ptr %12, align 4
  %86 = zext i32 %85 to i64
  %87 = shl i64 %84, %86
  %88 = load i64, ptr %11, align 8
  %89 = add nsw i64 %88, %87
  store i64 %89, ptr %11, align 8
  br label %90

90:                                               ; preds = %82, %81
  br label %91

91:                                               ; preds = %90, %73
  br label %92

92:                                               ; preds = %91, %72
  br label %93

93:                                               ; preds = %92
  br label %94

94:                                               ; preds = %93, %30
  %95 = load i64, ptr %11, align 8
  %96 = load ptr, ptr %6, align 8
  store i64 %95, ptr %96, align 8
  %97 = load ptr, ptr %7, align 8
  %98 = load ptr, ptr %97, align 8
  %99 = icmp eq ptr %98, inttoptr (i64 -1 to ptr)
  br i1 %99, label %100, label %163

100:                                              ; preds = %94
  %101 = load ptr, ptr %10, align 8
  %102 = load ptr, ptr %101, align 8
  %103 = getelementptr inbounds ptr, ptr %102, i64 21
  %104 = load ptr, ptr %103, align 8
  %105 = call noundef ptr %104(ptr noundef nonnull align 8 dereferenceable(8) %101)
  store ptr %105, ptr %15, align 8
  %106 = load ptr, ptr %15, align 8
  %107 = icmp ne ptr %106, null
  br i1 %107, label %108, label %137

108:                                              ; preds = %100
  %109 = load ptr, ptr %6, align 8
  store i64 -2000000001, ptr %109, align 8
  %110 = load ptr, ptr %8, align 8
  %111 = load ptr, ptr %110, align 8
  %112 = getelementptr inbounds ptr, ptr %111, i64 5
  %113 = load ptr, ptr %112, align 8
  %114 = call noundef ptr %113(ptr noundef nonnull align 8 dereferenceable(52) %110)
  store ptr %114, ptr %16, align 8
  %115 = load ptr, ptr %16, align 8
  %116 = call noundef ptr @_ZNK4Type8isa_longEv(ptr noundef nonnull align 8 dereferenceable(20) %115)
  %117 = icmp ne ptr %116, null
  br i1 %117, label %118, label %128

118:                                              ; preds = %108
  %119 = load ptr, ptr %16, align 8
  %120 = call noundef ptr @_ZNK4Type7is_longEv(ptr noundef nonnull align 8 dereferenceable(20) %119)
  store ptr %120, ptr %17, align 8
  %121 = load ptr, ptr %17, align 8
  %122 = call noundef zeroext i1 @_ZNK8TypeLong6is_conEv(ptr noundef nonnull align 8 dereferenceable(40) %121)
  br i1 %122, label %123, label %127

123:                                              ; preds = %118
  %124 = load ptr, ptr %17, align 8
  %125 = call noundef i64 @_ZNK8TypeLong7get_conEv(ptr noundef nonnull align 8 dereferenceable(40) %124)
  %126 = load ptr, ptr %6, align 8
  store i64 %125, ptr %126, align 8
  br label %127

127:                                              ; preds = %123, %118
  br label %128

128:                                              ; preds = %127, %108
  %129 = load ptr, ptr %15, align 8
  %130 = load ptr, ptr %6, align 8
  %131 = load i64, ptr %130, align 8
  %132 = load ptr, ptr %129, align 8
  %133 = getelementptr inbounds ptr, ptr %132, i64 24
  %134 = load ptr, ptr %133, align 8
  %135 = call noundef ptr %134(ptr noundef nonnull align 8 dereferenceable(44) %129, i64 noundef %131)
  %136 = load ptr, ptr %7, align 8
  store ptr %135, ptr %136, align 8
  br label %162

137:                                              ; preds = %100
  %138 = load ptr, ptr %8, align 8
  %139 = icmp eq ptr %138, null
  br i1 %139, label %140, label %161

140:                                              ; preds = %137
  %141 = load ptr, ptr %6, align 8
  %142 = load i64, ptr %141, align 8
  %143 = icmp ne i64 %142, 0
  br i1 %143, label %144, label %161

144:                                              ; preds = %140
  %145 = load ptr, ptr %6, align 8
  %146 = load i64, ptr %145, align 8
  %147 = icmp ne i64 %146, -2000000001
  br i1 %147, label %148, label %161

148:                                              ; preds = %144
  %149 = load ptr, ptr %10, align 8
  %150 = load ptr, ptr %149, align 8
  %151 = getelementptr inbounds ptr, ptr %150, i64 27
  %152 = load ptr, ptr %151, align 8
  %153 = call noundef ptr %152(ptr noundef nonnull align 8 dereferenceable(8) %149)
  %154 = call noundef ptr @_ZNK4Type7isa_ptrEv(ptr noundef nonnull align 8 dereferenceable(20) %153)
  store ptr %154, ptr %18, align 8
  %155 = load ptr, ptr %18, align 8
  %156 = icmp ne ptr %155, null
  br i1 %156, label %157, label %160

157:                                              ; preds = %148
  %158 = load ptr, ptr %18, align 8
  %159 = load ptr, ptr %7, align 8
  store ptr %158, ptr %159, align 8
  br label %160

160:                                              ; preds = %157, %148
  br label %161

161:                                              ; preds = %160, %144, %140, %137
  br label %162

162:                                              ; preds = %161, %128
  br label %163

163:                                              ; preds = %162, %94
  br label %164

164:                                              ; preds = %163, %28
  br label %165

165:                                              ; preds = %164, %23
  %166 = load ptr, ptr %8, align 8
  store ptr %166, ptr %4, align 8
  br label %167

167:                                              ; preds = %165, %57
  %168 = load ptr, ptr %4, align 8
  ret ptr %168
}