; Function Attrs: mustprogress nounwind uwtable
define hidden noundef ptr @_ZNK8MachNode17get_base_and_dispERlRPK7TypePtr(ptr noundef nonnull align 8 dereferenceable(64) %0, ptr nocapture noundef nonnull align 8 dereferenceable(8) %1, ptr nocapture noundef nonnull align 8 dereferenceable(8) %2) local_unnamed_addr #6 align 2 {
  %4 = alloca ptr, align 8
  %5 = alloca ptr, align 8
  %6 = call noundef ptr @_ZNK8MachNode13memory_inputsERP4NodeS2_(ptr noundef nonnull align 8 dereferenceable(64) %0, ptr noundef nonnull align 8 dereferenceable(8) %4, ptr noundef nonnull align 8 dereferenceable(8) %5)
  %magicptr = ptrtoint ptr %6 to i64
  switch i64 %magicptr, label %9 [
    i64 0, label %7
    i64 -1, label %8
  ]

7:                                                ; preds = %3
  store i64 0, ptr %1, align 8
  br label %100

8:                                                ; preds = %3
  store i64 -2000000001, ptr %1, align 8
  br label %100

9:                                                ; preds = %3
  %10 = load ptr, ptr %6, align 8
  %11 = getelementptr inbounds i8, ptr %10, i64 144
  %12 = load ptr, ptr %11, align 8
  %13 = tail call noundef i32 %12(ptr noundef nonnull align 8 dereferenceable(8) %6) #13
  %14 = sext i32 %13 to i64
  %15 = load ptr, ptr %6, align 8
  %16 = getelementptr inbounds i8, ptr %15, i64 120
  %17 = load ptr, ptr %16, align 8
  %18 = tail call noundef i32 %17(ptr noundef nonnull align 8 dereferenceable(8) %6) #13
  %19 = load ptr, ptr %5, align 8
  %.not = icmp eq ptr %19, null
  br i1 %.not, label %56, label %20

20:                                               ; preds = %9
  %21 = load ptr, ptr %19, align 8
  %22 = getelementptr inbounds i8, ptr %21, i64 40
  %23 = load ptr, ptr %22, align 8
  %24 = tail call noundef ptr %23(ptr noundef nonnull align 8 dereferenceable(52) %19) #13
  %25 = getelementptr inbounds i8, ptr %24, i64 16
  %26 = load i32, ptr %25, align 8
  %.not4860 = icmp eq ptr %24, null
  %27 = add i32 %26, -8
  %.not4968 = icmp ult i32 %27, -2
  %or.cond65 = or i1 %.not4860, %.not4968
  br i1 %or.cond65, label %44, label %28

28:                                               ; preds = %20
  store i64 %14, ptr %1, align 8
  %29 = load i32, ptr %25, align 8
  switch i32 %29, label %36 [
    i32 6, label %30
    i32 7, label %33
  ]

30:                                               ; preds = %28
  %31 = getelementptr inbounds i8, ptr %24, i64 24
  %32 = load ptr, ptr %31, align 8
  br label %_ZNK4Type8make_ptrEv.exit

33:                                               ; preds = %28
  %34 = getelementptr inbounds i8, ptr %24, i64 24
  %35 = load ptr, ptr %34, align 8
  br label %_ZNK4Type8make_ptrEv.exit

36:                                               ; preds = %28
  %37 = add i32 %29, -18
  %or.cond.i.i = icmp ult i32 %37, 9
  %38 = select i1 %or.cond.i.i, ptr %24, ptr null
  br label %_ZNK4Type8make_ptrEv.exit

_ZNK4Type8make_ptrEv.exit:                        ; preds = %30, %33, %36
  %39 = phi ptr [ %32, %30 ], [ %35, %33 ], [ %38, %36 ]
  %40 = load ptr, ptr %39, align 8
  %41 = getelementptr inbounds i8, ptr %40, i64 192
  %42 = load ptr, ptr %41, align 8
  %43 = tail call noundef ptr %42(ptr noundef nonnull align 8 dereferenceable(44) %39, i64 noundef %14) #13
  store ptr %43, ptr %2, align 8
  br label %102

44:                                               ; preds = %20
  %45 = getelementptr inbounds i8, ptr %19, i64 48
  %46 = load i32, ptr %45, align 8
  %47 = and i32 %46, 16
  %.not62 = icmp eq i32 %47, 0
  %.not50 = icmp eq i32 %13, -2000000001
  %or.cond = or i1 %.not50, %.not62
  %48 = icmp ne i32 %26, 4
  %49 = or i1 %.not4860, %48
  %or.cond67 = or i1 %or.cond, %49
  br i1 %or.cond67, label %56, label %50

50:                                               ; preds = %44
  %51 = getelementptr inbounds i8, ptr %24, i64 24
  %52 = load i64, ptr %51, align 8
  %53 = zext nneg i32 %18 to i64
  %54 = shl i64 %52, %53
  %55 = add nsw i64 %54, %14
  br label %56

56:                                               ; preds = %44, %50, %9
  %.040 = phi i64 [ %55, %50 ], [ %14, %9 ], [ -2000000001, %44 ]
  store i64 %.040, ptr %1, align 8
  %57 = load ptr, ptr %2, align 8
  %58 = icmp eq ptr %57, inttoptr (i64 -1 to ptr)
  br i1 %58, label %59, label %100

59:                                               ; preds = %56
  %60 = load ptr, ptr %6, align 8
  %61 = getelementptr inbounds i8, ptr %60, i64 168
  %62 = load ptr, ptr %61, align 8
  %63 = tail call noundef ptr %62(ptr noundef nonnull align 8 dereferenceable(8) %6) #13
  %.not51 = icmp eq ptr %63, null
  br i1 %.not51, label %86, label %64

64:                                               ; preds = %59
  store i64 -2000000001, ptr %1, align 8
  %65 = load ptr, ptr %4, align 8
  %66 = load ptr, ptr %65, align 8
  %67 = getelementptr inbounds i8, ptr %66, i64 40
  %68 = load ptr, ptr %67, align 8
  %69 = tail call noundef ptr %68(ptr noundef nonnull align 8 dereferenceable(52) %65) #13
  %70 = getelementptr inbounds i8, ptr %69, i64 16
  %71 = load i32, ptr %70, align 8
  %72 = icmp ne i32 %71, 4
  %.not5563 = icmp eq ptr %69, null
  %.not55 = or i1 %.not5563, %72
  br i1 %.not55, label %80, label %73

73:                                               ; preds = %64
  %74 = getelementptr inbounds i8, ptr %69, i64 24
  %75 = load i64, ptr %74, align 8
  %76 = getelementptr inbounds i8, ptr %69, i64 32
  %77 = load i64, ptr %76, align 8
  %78 = icmp eq i64 %75, %77
  br i1 %78, label %79, label %80

79:                                               ; preds = %73
  store i64 %75, ptr %1, align 8
  br label %80

80:                                               ; preds = %73, %79, %64
  %81 = load i64, ptr %1, align 8
  %82 = load ptr, ptr %63, align 8
  %83 = getelementptr inbounds i8, ptr %82, i64 192
  %84 = load ptr, ptr %83, align 8
  %85 = tail call noundef ptr %84(ptr noundef nonnull align 8 dereferenceable(44) %63, i64 noundef %81) #13
  store ptr %85, ptr %2, align 8
  br label %100

86:                                               ; preds = %59
  %87 = load ptr, ptr %4, align 8
  %88 = icmp eq ptr %87, null
  br i1 %88, label %89, label %100

89:                                               ; preds = %86
  %90 = load i64, ptr %1, align 8
  switch i64 %90, label %91 [
    i64 0, label %100
    i64 -2000000001, label %100
  ]

91:                                               ; preds = %89
  %92 = load ptr, ptr %6, align 8
  %93 = getelementptr inbounds i8, ptr %92, i64 216
  %94 = load ptr, ptr %93, align 8
  %95 = tail call noundef ptr %94(ptr noundef nonnull align 8 dereferenceable(8) %6) #13
  %96 = getelementptr inbounds i8, ptr %95, i64 16
  %97 = load i32, ptr %96, align 8
  %98 = add i32 %97, -27
  %or.cond.i = icmp ult i32 %98, -9
  %.not5464 = icmp eq ptr %95, null
  %.not54 = or i1 %.not5464, %or.cond.i
  br i1 %.not54, label %100, label %99

99:                                               ; preds = %91
  store ptr %95, ptr %2, align 8
  br label %100

100:                                              ; preds = %89, %89, %8, %80, %91, %99, %86, %56, %7
  %101 = load ptr, ptr %4, align 8
  br label %102

102:                                              ; preds = %100, %_ZNK4Type8make_ptrEv.exit
  %.0 = phi ptr [ %101, %100 ], [ null, %_ZNK4Type8make_ptrEv.exit ]
  ret ptr %.0
}